target datalayout = "e-m:e-p270:32:32-p271:32:32-p272:64:64-i64:64-i128:128-f80:128-n8:16:32:64-S128"
target triple = "x86_64-pc-linux-gnu"

@.str.95 = private unnamed_addr constant [2 x i8] c"R\00", align 1
@.str.96 = private unnamed_addr constant [2 x i8] c"G\00", align 1
@.str.97 = private unnamed_addr constant [2 x i8] c"B\00", align 1
@.str.98 = private unnamed_addr constant [2 x i8] c"A\00", align 1

; Function Attrs: mustprogress uwtable
define hidden noundef i32 @_ZNK19OpenColorIO_v2_5dev23CTFReaderGammaParamsElt16getChannelNumberEPKc(ptr noundef nonnull align 8 dereferenceable(96) %0, ptr noundef %1) unnamed_addr #5 align 2 {
  %3 = alloca ptr, align 8
  %4 = alloca ptr, align 8
  %5 = alloca i32, align 4
  store ptr %0, ptr %3, align 8, !tbaa !462
  store ptr %1, ptr %4, align 8, !tbaa !54
  call void @llvm.lifetime.start.p0(i64 4, ptr %5) #3
  store i32 -1, ptr %5, align 4, !tbaa !13
  %6 = load ptr, ptr %4, align 8, !tbaa !54
  %7 = call noundef i32 @_ZN19OpenColorIO_v2_5dev8Platform10StrcasecmpEPKcS2_(ptr noundef @.str.95, ptr noundef %6)
  %8 = icmp eq i32 0, %7
  br i1 %8, label %9, label %10

9:                                                ; preds = %2
  store i32 0, ptr %5, align 4, !tbaa !13
  br label %22

10:                                               ; preds = %2
  %11 = load ptr, ptr %4, align 8, !tbaa !54
  %12 = call noundef i32 @_ZN19OpenColorIO_v2_5dev8Platform10StrcasecmpEPKcS2_(ptr noundef @.str.96, ptr noundef %11)
  %13 = icmp eq i32 0, %12
  br i1 %13, label %14, label %15

14:                                               ; preds = %10
  store i32 1, ptr %5, align 4, !tbaa !13
  br label %21

15:                                               ; preds = %10
  %16 = load ptr, ptr %4, align 8, !tbaa !54
  %17 = call noundef i32 @_ZN19OpenColorIO_v2_5dev8Platform10StrcasecmpEPKcS2_(ptr noundef @.str.97, ptr noundef %16)
  %18 = icmp eq i32 0, %17
  br i1 %18, label %19, label %20

19:                                               ; preds = %15
  store i32 2, ptr %5, align 4, !tbaa !13
  br label %20

20:                                               ; preds = %19, %15
  br label %21

21:                                               ; preds = %20, %14
  br label %22

22:                                               ; preds = %21, %9
  %23 = load i32, ptr %5, align 4, !tbaa !13
  call void @llvm.lifetime.end.p0(i64 4, ptr %5) #3
  ret i32 %23
}

; Function Attrs: mustprogress uwtable
define hidden noundef i32 @_ZNK19OpenColorIO_v2_5dev27CTFReaderGammaParamsElt_1_516getChannelNumberEPKc(ptr noundef nonnull align 8 dereferenceable(96) %0, ptr noundef %1) unnamed_addr #5 align 2 {
  %3 = alloca ptr, align 8
  %4 = alloca ptr, align 8
  %5 = alloca i32, align 4
  store ptr %0, ptr %3, align 8, !tbaa !465
  store ptr %1, ptr %4, align 8, !tbaa !54
  %6 = load ptr, ptr %3, align 8
  call void @llvm.lifetime.start.p0(i64 4, ptr %5) #3
  store i32 -1, ptr %5, align 4, !tbaa !13
  %7 = load ptr, ptr %4, align 8, !tbaa !54
  %8 = call noundef i32 @_ZN19OpenColorIO_v2_5dev8Platform10StrcasecmpEPKcS2_(ptr noundef @.str.98, ptr noundef %7)
  %9 = icmp eq i32 0, %8
  br i1 %9, label %10, label %11

10:                                               ; preds = %2
  store i32 3, ptr %5, align 4, !tbaa !13
  br label %14

11:                                               ; preds = %2
  %12 = load ptr, ptr %4, align 8, !tbaa !54
  %13 = call noundef i32 @_ZNK19OpenColorIO_v2_5dev23CTFReaderGammaParamsElt16getChannelNumberEPKc(ptr noundef nonnull align 8 dereferenceable(96) %6, ptr noundef %12)
  store i32 %13, ptr %5, align 4, !tbaa !13
  br label %14

14:                                               ; preds = %11, %10
  %15 = load i32, ptr %5, align 4, !tbaa !13
  call void @llvm.lifetime.end.p0(i64 4, ptr %5) #3
  ret i32 %15
}