; Function Attrs: mustprogress uwtable
define hidden noundef range(i32 -1, 4) i32 @_ZNK19OpenColorIO_v2_5dev27CTFReaderGammaParamsElt_1_516getChannelNumberEPKc(ptr nonnull readnone align 8 captures(none) %0, ptr noundef %1) unnamed_addr #4 align 2 {
  %3 = tail call noundef i32 @_ZN19OpenColorIO_v2_5dev8Platform10StrcasecmpEPKcS2_(ptr noundef nonnull @.str.98, ptr noundef %1)
  %4 = icmp eq i32 %3, 0
  br i1 %4, label %_ZNK19OpenColorIO_v2_5dev23CTFReaderGammaParamsElt16getChannelNumberEPKc.exit, label %5

5:                                                ; preds = %2
  %6 = tail call noundef i32 @_ZN19OpenColorIO_v2_5dev8Platform10StrcasecmpEPKcS2_(ptr noundef nonnull @.str.95, ptr noundef %1)
  %7 = icmp eq i32 %6, 0
  br i1 %7, label %_ZNK19OpenColorIO_v2_5dev23CTFReaderGammaParamsElt16getChannelNumberEPKc.exit, label %8

8:                                                ; preds = %5
  %9 = tail call noundef i32 @_ZN19OpenColorIO_v2_5dev8Platform10StrcasecmpEPKcS2_(ptr noundef nonnull @.str.96, ptr noundef %1)
  %10 = icmp eq i32 %9, 0
  br i1 %10, label %_ZNK19OpenColorIO_v2_5dev23CTFReaderGammaParamsElt16getChannelNumberEPKc.exit, label %11

11:                                               ; preds = %8
  %12 = tail call noundef i32 @_ZN19OpenColorIO_v2_5dev8Platform10StrcasecmpEPKcS2_(ptr noundef nonnull @.str.97, ptr noundef %1)
  %13 = icmp eq i32 %12, 0
  %spec.select.i = select i1 %13, i32 2, i32 -1
  br label %_ZNK19OpenColorIO_v2_5dev23CTFReaderGammaParamsElt16getChannelNumberEPKc.exit

_ZNK19OpenColorIO_v2_5dev23CTFReaderGammaParamsElt16getChannelNumberEPKc.exit: ; preds = %11, %8, %5, %2
  %.0 = phi i32 [ 3, %2 ], [ 0, %5 ], [ 1, %8 ], [ %spec.select.i, %11 ]
  ret i32 %.0
}